target datalayout = "e-m:e-p270:32:32-p271:32:32-p272:64:64-i64:64-i128:128-f80:128-n8:16:32:64-S128"
target triple = "x86_64-pc-linux-gnu"

%"class.xgboost::GHistIndexMatrix" = type <{ %"class.xgboost::common::RefResourceView", %"class.xgboost::common::RefResourceView.0", %"class.xgboost::common::Index", %"class.xgboost::common::RefResourceView", %"class.xgboost::common::HistogramCuts", i32, [4 x i8], i64, %"class.std::unique_ptr", %"class.std::vector.4", i8, [7 x i8] }>
%"class.xgboost::common::RefResourceView.0" = type { ptr, i64, %"class.std::shared_ptr" }
%"class.std::shared_ptr" = type { %"class.std::__shared_ptr" }
%"class.std::__shared_ptr" = type { ptr, %"class.std::__shared_count" }
%"class.std::__shared_count" = type { ptr }
%"class.xgboost::common::Index" = type { %"class.xgboost::common::Span", %"class.std::vector", i8, ptr }
%"class.xgboost::common::Span" = type { i64, ptr }
%"class.std::vector" = type { %"struct.std::_Vector_base" }
%"struct.std::_Vector_base" = type { %"struct.std::_Vector_base<unsigned int, std::allocator<unsigned int>>::_Vector_impl" }
%"struct.std::_Vector_base<unsigned int, std::allocator<unsigned int>>::_Vector_impl" = type { %"struct.std::_Vector_base<unsigned int, std::allocator<unsigned int>>::_Vector_impl_data" }
%"struct.std::_Vector_base<unsigned int, std::allocator<unsigned int>>::_Vector_impl_data" = type { ptr, ptr, ptr }
%"class.xgboost::common::RefResourceView" = type { ptr, i64, %"class.std::shared_ptr" }
%"class.xgboost::common::HistogramCuts" = type { i8, float, %"class.xgboost::HostDeviceVector", %"class.xgboost::HostDeviceVector.1", %"class.xgboost::HostDeviceVector" }
%"class.xgboost::HostDeviceVector.1" = type { ptr }
%"class.xgboost::HostDeviceVector" = type { ptr }
%"class.std::unique_ptr" = type { %"struct.std::__uniq_ptr_data" }
%"struct.std::__uniq_ptr_data" = type { %"class.std::__uniq_ptr_impl" }
%"class.std::__uniq_ptr_impl" = type { %"class.std::tuple" }
%"class.std::tuple" = type { %"struct.std::_Tuple_impl" }
%"struct.std::_Tuple_impl" = type { %"struct.std::_Head_base.3" }
%"struct.std::_Head_base.3" = type { ptr }
%"class.std::vector.4" = type { %"struct.std::_Vector_base.5" }
%"struct.std::_Vector_base.5" = type { %"struct.std::_Vector_base<unsigned long, std::allocator<unsigned long>>::_Vector_impl" }
%"struct.std::_Vector_base<unsigned long, std::allocator<unsigned long>>::_Vector_impl" = type { %"struct.std::_Vector_base<unsigned long, std::allocator<unsigned long>>::_Vector_impl_data" }
%"struct.std::_Vector_base<unsigned long, std::allocator<unsigned long>>::_Vector_impl_data" = type { ptr, ptr, ptr }

; Function Attrs: mustprogress uwtable
define linkonce_odr noundef nonnull align 8 dereferenceable(24) ptr @_ZNK7xgboost6common13HistogramCuts4PtrsEv(ptr noundef nonnull align 8 dereferenceable(32) %0) #4 comdat align 2 {
  %2 = alloca ptr, align 8
  store ptr %0, ptr %2, align 8, !tbaa !112
  %3 = load ptr, ptr %2, align 8
  %4 = getelementptr inbounds nuw %"class.xgboost::common::HistogramCuts", ptr %3, i32 0, i32 3
  %5 = call noundef nonnull align 8 dereferenceable(24) ptr @_ZNK7xgboost16HostDeviceVectorIjE15ConstHostVectorEv(ptr noundef nonnull align 8 dereferenceable(8) %4)
  ret ptr %5
}

; Function Attrs: mustprogress uwtable
define linkonce_odr noundef nonnull align 8 dereferenceable(24) ptr @_ZNK7xgboost6common13HistogramCuts9MinValuesEv(ptr noundef nonnull align 8 dereferenceable(32) %0) #4 comdat align 2 {
  %2 = alloca ptr, align 8
  store ptr %0, ptr %2, align 8, !tbaa !112
  %3 = load ptr, ptr %2, align 8
  %4 = getelementptr inbounds nuw %"class.xgboost::common::HistogramCuts", ptr %3, i32 0, i32 4
  %5 = call noundef nonnull align 8 dereferenceable(24) ptr @_ZNK7xgboost16HostDeviceVectorIfE15ConstHostVectorEv(ptr noundef nonnull align 8 dereferenceable(8) %4)
  ret ptr %5
}

; Function Attrs: mustprogress uwtable
define linkonce_odr noundef nonnull align 8 dereferenceable(24) ptr @_ZNK7xgboost6common13HistogramCuts6ValuesEv(ptr noundef nonnull align 8 dereferenceable(32) %0) #4 comdat align 2 {
  %2 = alloca ptr, align 8
  store ptr %0, ptr %2, align 8, !tbaa !112
  %3 = load ptr, ptr %2, align 8
  %4 = getelementptr inbounds nuw %"class.xgboost::common::HistogramCuts", ptr %3, i32 0, i32 2
  %5 = call noundef nonnull align 8 dereferenceable(24) ptr @_ZNK7xgboost16HostDeviceVectorIfE15ConstHostVectorEv(ptr noundef nonnull align 8 dereferenceable(8) %4)
  ret ptr %5
}

; Function Attrs: mustprogress uwtable
define noundef float @_ZNK7xgboost16GHistIndexMatrix9GetFvalueEmmb(ptr noundef nonnull align 8 dereferenceable(233) %0, i64 noundef %1, i64 noundef %2, i1 noundef zeroext %3) #4 align 2 {
  %5 = alloca ptr, align 8
  %6 = alloca i64, align 8
  %7 = alloca i64, align 8
  %8 = alloca i8, align 1
  %9 = alloca ptr, align 8
  %10 = alloca ptr, align 8
  %11 = alloca ptr, align 8
  store ptr %0, ptr %5, align 8, !tbaa !3
  store i64 %1, ptr %6, align 8, !tbaa !14
  store i64 %2, ptr %7, align 8, !tbaa !14
  %12 = zext i1 %3 to i8
  store i8 %12, ptr %8, align 1, !tbaa !118
  %13 = load ptr, ptr %5, align 8
  call void @llvm.lifetime.start.p0(i64 8, ptr %9) #3
  %14 = getelementptr inbounds nuw %"class.xgboost::GHistIndexMatrix", ptr %13, i32 0, i32 4
  %15 = call noundef nonnull align 8 dereferenceable(24) ptr @_ZNK7xgboost6common13HistogramCuts6ValuesEv(ptr noundef nonnull align 8 dereferenceable(32) %14)
  store ptr %15, ptr %9, align 8, !tbaa !209
  call void @llvm.lifetime.start.p0(i64 8, ptr %10) #3
  %16 = getelementptr inbounds nuw %"class.xgboost::GHistIndexMatrix", ptr %13, i32 0, i32 4
  %17 = call noundef nonnull align 8 dereferenceable(24) ptr @_ZNK7xgboost6common13HistogramCuts9MinValuesEv(ptr noundef nonnull align 8 dereferenceable(32) %16)
  store ptr %17, ptr %10, align 8, !tbaa !209
  call void @llvm.lifetime.start.p0(i64 8, ptr %11) #3
  %18 = getelementptr inbounds nuw %"class.xgboost::GHistIndexMatrix", ptr %13, i32 0, i32 4
  %19 = call noundef nonnull align 8 dereferenceable(24) ptr @_ZNK7xgboost6common13HistogramCuts4PtrsEv(ptr noundef nonnull align 8 dereferenceable(32) %18)
  store ptr %19, ptr %11, align 8, !tbaa !130
  %20 = load ptr, ptr %11, align 8, !tbaa !130
  %21 = load ptr, ptr %9, align 8, !tbaa !209
  %22 = load ptr, ptr %10, align 8, !tbaa !209
  %23 = load i64, ptr %6, align 8, !tbaa !14
  %24 = load i64, ptr %7, align 8, !tbaa !14
  %25 = trunc i64 %24 to i32
  %26 = load i8, ptr %8, align 1, !tbaa !118, !range !47, !noundef !48
  %27 = trunc i8 %26 to i1
  %28 = call noundef float @_ZNK7xgboost16GHistIndexMatrix9GetFvalueERKSt6vectorIjSaIjEERKS1_IfSaIfEES9_mjb(ptr noundef nonnull align 8 dereferenceable(233) %13, ptr noundef nonnull align 8 dereferenceable(24) %20, ptr noundef nonnull align 8 dereferenceable(24) %21, ptr noundef nonnull align 8 dereferenceable(24) %22, i64 noundef %23, i32 noundef %25, i1 noundef zeroext %27)
  call void @llvm.lifetime.end.p0(i64 8, ptr %11) #3
  call void @llvm.lifetime.end.p0(i64 8, ptr %10) #3
  call void @llvm.lifetime.end.p0(i64 8, ptr %9) #3
  ret float %28
}