; Function Attrs: mustprogress uwtable
define noundef float @_ZNK7xgboost16GHistIndexMatrix9GetFvalueEmmb(ptr noundef nonnull align 8 dereferenceable(233) %0, i64 noundef %1, i64 noundef %2, i1 noundef zeroext %3) local_unnamed_addr #3 align 2 {
  %5 = getelementptr inbounds nuw i8, ptr %0, i64 160
  %6 = tail call noundef nonnull align 8 dereferenceable(24) ptr @_ZNK7xgboost16HostDeviceVectorIfE15ConstHostVectorEv(ptr noundef nonnull align 8 dereferenceable(8) %5)
  %7 = getelementptr inbounds nuw i8, ptr %0, i64 176
  %8 = tail call noundef nonnull align 8 dereferenceable(24) ptr @_ZNK7xgboost16HostDeviceVectorIfE15ConstHostVectorEv(ptr noundef nonnull align 8 dereferenceable(8) %7)
  %9 = getelementptr inbounds nuw i8, ptr %0, i64 168
  %10 = tail call noundef nonnull align 8 dereferenceable(24) ptr @_ZNK7xgboost16HostDeviceVectorIjE15ConstHostVectorEv(ptr noundef nonnull align 8 dereferenceable(8) %9)
  %11 = trunc i64 %2 to i32
  %12 = tail call noundef float @_ZNK7xgboost16GHistIndexMatrix9GetFvalueERKSt6vectorIjSaIjEERKS1_IfSaIfEES9_mjb(ptr noundef nonnull align 8 dereferenceable(233) %0, ptr noundef nonnull align 8 dereferenceable(24) %10, ptr noundef nonnull align 8 dereferenceable(24) %6, ptr noundef nonnull align 8 dereferenceable(24) %8, i64 noundef %1, i32 noundef %11, i1 noundef zeroext %3)
  ret float %12
}